target datalayout = "e-m:e-p270:32:32-p271:32:32-p272:64:64-i64:64-i128:128-f80:128-n8:16:32:64-S128"
target triple = "x86_64-pc-linux-gnu"

@.str.43 = private unnamed_addr constant [2 x i8] c"p\00", align 1
@.str.74 = private unnamed_addr constant [38 x i8] c"../openssl/test/radix/quic_bindings.c\00", align 1

; Function Attrs: nounwind uwtable
define internal void @radix_thread_cleanup_tl(ptr noundef %0) #0 {
  %2 = alloca ptr, align 8
  store ptr %0, ptr %2, align 8, !tbaa !41
  %3 = load ptr, ptr %2, align 8, !tbaa !41
  %4 = call i32 @test_ptr_null(ptr noundef @.str.74, i32 noundef 553, ptr noundef @.str.43, ptr noundef %3)
  %5 = icmp ne i32 %4, 0
  br i1 %5, label %7, label %6

6:                                                ; preds = %1
  call void @abort() #10
  unreachable

7:                                                ; preds = %1
  ret void
}