; Function Attrs: nounwind uwtable
define internal void @radix_thread_cleanup_tl(ptr noundef %0) #1 {
  %2 = tail call i32 @test_ptr_null(ptr noundef nonnull @.str.74, i32 noundef 553, ptr noundef nonnull @.str.43, ptr noundef %0) #12
  %.not = icmp eq i32 %2, 0
  br i1 %.not, label %3, label %4

3:                                                ; preds = %1
  tail call void @abort() #13
  unreachable

4:                                                ; preds = %1
  ret void
}